target datalayout = "e-m:e-p270:32:32-p271:32:32-p272:64:64-i64:64-i128:128-f80:128-n8:16:32:64-S128"
target triple = "x86_64-pc-linux-gnu"

%struct.Amap_Man_t_ = type { ptr, ptr, float, float, i32, i32, ptr, ptr, ptr, ptr, ptr, ptr, ptr, ptr, [7 x i32], i32, i32, i32, ptr, ptr, ptr, ptr, ptr, ptr, ptr, ptr, i32, i32, i32, i32 }
%struct.Amap_Obj_t_ = type { i64, i32, i32, i32, i32, [3 x i32], %union.anon, float, [2 x i32], %struct.Amap_Mat_t_ }
%union.anon = type { ptr }
%struct.Amap_Mat_t_ = type { ptr, ptr, float, float, float }

; Function Attrs: inlinehint nounwind uwtable
define internal i32 @Abc_Var2Lit(i32 noundef %0, i32 noundef %1) #4 {
  %3 = alloca i32, align 4
  %4 = alloca i32, align 4
  store i32 %0, ptr %3, align 4, !tbaa !23
  store i32 %1, ptr %4, align 4, !tbaa !23
  %5 = load i32, ptr %3, align 4, !tbaa !23
  %6 = load i32, ptr %3, align 4, !tbaa !23
  %7 = add nsw i32 %5, %6
  %8 = load i32, ptr %4, align 4, !tbaa !23
  %9 = add nsw i32 %7, %8
  ret i32 %9
}

; Function Attrs: inlinehint nounwind uwtable
define internal i32 @Amap_IsComplement(ptr noundef %0) #4 {
  %2 = alloca ptr, align 8
  store ptr %0, ptr %2, align 8, !tbaa !22
  %3 = load ptr, ptr %2, align 8, !tbaa !22
  %4 = ptrtoint ptr %3 to i64
  %5 = and i64 %4, 1
  %6 = trunc i64 %5 to i32
  ret i32 %6
}

; Function Attrs: inlinehint nounwind uwtable
define internal i32 @Abc_MaxInt(i32 noundef %0, i32 noundef %1) #4 {
  %3 = alloca i32, align 4
  %4 = alloca i32, align 4
  store i32 %0, ptr %3, align 4, !tbaa !23
  store i32 %1, ptr %4, align 4, !tbaa !23
  %5 = load i32, ptr %3, align 4, !tbaa !23
  %6 = load i32, ptr %4, align 4, !tbaa !23
  %7 = icmp sgt i32 %5, %6
  br i1 %7, label %8, label %10

8:                                                ; preds = %2
  %9 = load i32, ptr %3, align 4, !tbaa !23
  br label %12

10:                                               ; preds = %2
  %11 = load i32, ptr %4, align 4, !tbaa !23
  br label %12

12:                                               ; preds = %10, %8
  %13 = phi i32 [ %9, %8 ], [ %11, %10 ]
  ret i32 %13
}

; Function Attrs: inlinehint nounwind uwtable
define internal i32 @Amap_ObjPhaseReal(ptr noundef %0) #4 {
  %2 = alloca ptr, align 8
  store ptr %0, ptr %2, align 8, !tbaa !22
  %3 = load ptr, ptr %2, align 8, !tbaa !22
  %4 = call ptr @Amap_Regular(ptr noundef %3)
  %5 = load i64, ptr %4, align 8
  %6 = lshr i64 %5, 61
  %7 = and i64 %6, 1
  %8 = trunc i64 %7 to i32
  %9 = load ptr, ptr %2, align 8, !tbaa !22
  %10 = call i32 @Amap_IsComplement(ptr noundef %9)
  %11 = xor i32 %8, %10
  ret i32 %11
}

; Function Attrs: inlinehint nounwind uwtable
define internal ptr @Amap_Regular(ptr noundef %0) #4 {
  %2 = alloca ptr, align 8
  store ptr %0, ptr %2, align 8, !tbaa !22
  %3 = load ptr, ptr %2, align 8, !tbaa !22
  %4 = ptrtoint ptr %3 to i64
  %5 = and i64 %4, -2
  %6 = inttoptr i64 %5 to ptr
  ret ptr %6
}

; Function Attrs: inlinehint nounwind uwtable
define internal i32 @Amap_ObjToLit(ptr noundef %0) #4 {
  %2 = alloca ptr, align 8
  store ptr %0, ptr %2, align 8, !tbaa !22
  %3 = load ptr, ptr %2, align 8, !tbaa !22
  %4 = call ptr @Amap_Regular(ptr noundef %3)
  %5 = load i64, ptr %4, align 8
  %6 = lshr i64 %5, 3
  %7 = and i64 %6, 536870911
  %8 = trunc i64 %7 to i32
  %9 = load ptr, ptr %2, align 8, !tbaa !22
  %10 = call i32 @Amap_IsComplement(ptr noundef %9)
  %11 = call i32 @Abc_Var2Lit(i32 noundef %8, i32 noundef %10)
  ret i32 %11
}

; Function Attrs: inlinehint nounwind uwtable
define internal ptr @Amap_Not(ptr noundef %0) #4 {
  %2 = alloca ptr, align 8
  store ptr %0, ptr %2, align 8, !tbaa !22
  %3 = load ptr, ptr %2, align 8, !tbaa !22
  %4 = ptrtoint ptr %3 to i64
  %5 = xor i64 %4, 1
  %6 = inttoptr i64 %5 to ptr
  ret ptr %6
}

; Function Attrs: nounwind uwtable
define ptr @Amap_ManCreateXor(ptr noundef %0, ptr noundef %1, ptr noundef %2) #0 {
  %4 = alloca ptr, align 8
  %5 = alloca ptr, align 8
  %6 = alloca ptr, align 8
  %7 = alloca ptr, align 8
  store ptr %0, ptr %4, align 8, !tbaa !3
  store ptr %1, ptr %5, align 8, !tbaa !22
  store ptr %2, ptr %6, align 8, !tbaa !22
  call void @llvm.lifetime.start.p0(i64 8, ptr %7) #8
  %8 = load ptr, ptr %4, align 8, !tbaa !3
  %9 = call ptr @Amap_ManSetupObj(ptr noundef %8)
  store ptr %9, ptr %7, align 8, !tbaa !22
  %10 = load ptr, ptr %7, align 8, !tbaa !22
  %11 = load i64, ptr %10, align 8
  %12 = and i64 %11, -8
  %13 = or i64 %12, 5
  store i64 %13, ptr %10, align 8
  %14 = load ptr, ptr %5, align 8, !tbaa !22
  %15 = call i32 @Amap_ObjToLit(ptr noundef %14)
  %16 = load ptr, ptr %7, align 8, !tbaa !22
  %17 = getelementptr inbounds nuw %struct.Amap_Obj_t_, ptr %16, i32 0, i32 5
  %18 = getelementptr inbounds [3 x i32], ptr %17, i64 0, i64 0
  store i32 %15, ptr %18, align 8, !tbaa !23
  %19 = load ptr, ptr %5, align 8, !tbaa !22
  %20 = call ptr @Amap_Regular(ptr noundef %19)
  %21 = getelementptr inbounds nuw %struct.Amap_Obj_t_, ptr %20, i32 0, i32 3
  %22 = load i32, ptr %21, align 8, !tbaa !33
  %23 = add nsw i32 %22, 1
  store i32 %23, ptr %21, align 8, !tbaa !33
  %24 = load ptr, ptr %6, align 8, !tbaa !22
  %25 = call i32 @Amap_ObjToLit(ptr noundef %24)
  %26 = load ptr, ptr %7, align 8, !tbaa !22
  %27 = getelementptr inbounds nuw %struct.Amap_Obj_t_, ptr %26, i32 0, i32 5
  %28 = getelementptr inbounds [3 x i32], ptr %27, i64 0, i64 1
  store i32 %25, ptr %28, align 4, !tbaa !23
  %29 = load ptr, ptr %6, align 8, !tbaa !22
  %30 = call ptr @Amap_Regular(ptr noundef %29)
  %31 = getelementptr inbounds nuw %struct.Amap_Obj_t_, ptr %30, i32 0, i32 3
  %32 = load i32, ptr %31, align 8, !tbaa !33
  %33 = add nsw i32 %32, 1
  store i32 %33, ptr %31, align 8, !tbaa !33
  %34 = load ptr, ptr %5, align 8, !tbaa !22
  %35 = call i32 @Amap_ObjPhaseReal(ptr noundef %34)
  %36 = load ptr, ptr %6, align 8, !tbaa !22
  %37 = call i32 @Amap_ObjPhaseReal(ptr noundef %36)
  %38 = xor i32 %35, %37
  %39 = load ptr, ptr %7, align 8, !tbaa !22
  %40 = zext i32 %38 to i64
  %41 = load i64, ptr %39, align 8
  %42 = and i64 %40, 1
  %43 = shl i64 %42, 61
  %44 = and i64 %41, -2305843009213693953
  %45 = or i64 %44, %43
  store i64 %45, ptr %39, align 8
  %46 = load ptr, ptr %5, align 8, !tbaa !22
  %47 = call ptr @Amap_Regular(ptr noundef %46)
  %48 = getelementptr inbounds nuw %struct.Amap_Obj_t_, ptr %47, i32 0, i32 1
  %49 = load i32, ptr %48, align 8, !tbaa !37
  %50 = load ptr, ptr %6, align 8, !tbaa !22
  %51 = call ptr @Amap_Regular(ptr noundef %50)
  %52 = getelementptr inbounds nuw %struct.Amap_Obj_t_, ptr %51, i32 0, i32 1
  %53 = load i32, ptr %52, align 8, !tbaa !37
  %54 = call i32 @Abc_MaxInt(i32 noundef %49, i32 noundef %53)
  %55 = add nsw i32 2, %54
  %56 = load ptr, ptr %7, align 8, !tbaa !22
  %57 = getelementptr inbounds nuw %struct.Amap_Obj_t_, ptr %56, i32 0, i32 1
  store i32 %55, ptr %57, align 8, !tbaa !37
  %58 = load ptr, ptr %4, align 8, !tbaa !3
  %59 = getelementptr inbounds nuw %struct.Amap_Man_t_, ptr %58, i32 0, i32 15
  %60 = load i32, ptr %59, align 4, !tbaa !38
  %61 = load ptr, ptr %7, align 8, !tbaa !22
  %62 = getelementptr inbounds nuw %struct.Amap_Obj_t_, ptr %61, i32 0, i32 1
  %63 = load i32, ptr %62, align 8, !tbaa !37
  %64 = icmp slt i32 %60, %63
  br i1 %64, label %65, label %71

65:                                               ; preds = %3
  %66 = load ptr, ptr %7, align 8, !tbaa !22
  %67 = getelementptr inbounds nuw %struct.Amap_Obj_t_, ptr %66, i32 0, i32 1
  %68 = load i32, ptr %67, align 8, !tbaa !37
  %69 = load ptr, ptr %4, align 8, !tbaa !3
  %70 = getelementptr inbounds nuw %struct.Amap_Man_t_, ptr %69, i32 0, i32 15
  store i32 %68, ptr %70, align 4, !tbaa !38
  br label %71

71:                                               ; preds = %65, %3
  %72 = load ptr, ptr %4, align 8, !tbaa !3
  %73 = getelementptr inbounds nuw %struct.Amap_Man_t_, ptr %72, i32 0, i32 14
  %74 = getelementptr inbounds [7 x i32], ptr %73, i64 0, i64 5
  %75 = load i32, ptr %74, align 4, !tbaa !23
  %76 = add nsw i32 %75, 1
  store i32 %76, ptr %74, align 4, !tbaa !23
  %77 = load ptr, ptr %7, align 8, !tbaa !22
  call void @llvm.lifetime.end.p0(i64 8, ptr %7) #8
  ret ptr %77
}

; Function Attrs: nounwind uwtable
define void @Amap_ManCreateXorChoices(ptr noundef %0, ptr noundef %1, ptr noundef %2, ptr noundef %3) #0 {
  %5 = alloca ptr, align 8
  %6 = alloca ptr, align 8
  %7 = alloca ptr, align 8
  %8 = alloca ptr, align 8
  store ptr %0, ptr %5, align 8, !tbaa !3
  store ptr %1, ptr %6, align 8, !tbaa !22
  store ptr %2, ptr %7, align 8, !tbaa !22
  store ptr %3, ptr %8, align 8, !tbaa !42
  %9 = load ptr, ptr %5, align 8, !tbaa !3
  %10 = load ptr, ptr %6, align 8, !tbaa !22
  %11 = load ptr, ptr %7, align 8, !tbaa !22
  %12 = call ptr @Amap_ManCreateXor(ptr noundef %9, ptr noundef %10, ptr noundef %11)
  %13 = load ptr, ptr %8, align 8, !tbaa !42
  %14 = getelementptr inbounds ptr, ptr %13, i64 0
  store ptr %12, ptr %14, align 8, !tbaa !22
  %15 = load ptr, ptr %5, align 8, !tbaa !3
  %16 = load ptr, ptr %6, align 8, !tbaa !22
  %17 = call ptr @Amap_Not(ptr noundef %16)
  %18 = load ptr, ptr %7, align 8, !tbaa !22
  %19 = call ptr @Amap_ManCreateXor(ptr noundef %15, ptr noundef %17, ptr noundef %18)
  %20 = load ptr, ptr %8, align 8, !tbaa !42
  %21 = getelementptr inbounds ptr, ptr %20, i64 1
  store ptr %19, ptr %21, align 8, !tbaa !22
  %22 = load ptr, ptr %5, align 8, !tbaa !3
  %23 = load ptr, ptr %6, align 8, !tbaa !22
  %24 = load ptr, ptr %7, align 8, !tbaa !22
  %25 = call ptr @Amap_Not(ptr noundef %24)
  %26 = call ptr @Amap_ManCreateXor(ptr noundef %22, ptr noundef %23, ptr noundef %25)
  %27 = load ptr, ptr %8, align 8, !tbaa !42
  %28 = getelementptr inbounds ptr, ptr %27, i64 2
  store ptr %26, ptr %28, align 8, !tbaa !22
  %29 = load ptr, ptr %5, align 8, !tbaa !3
  %30 = load ptr, ptr %6, align 8, !tbaa !22
  %31 = call ptr @Amap_Not(ptr noundef %30)
  %32 = load ptr, ptr %7, align 8, !tbaa !22
  %33 = call ptr @Amap_Not(ptr noundef %32)
  %34 = call ptr @Amap_ManCreateXor(ptr noundef %29, ptr noundef %31, ptr noundef %33)
  %35 = load ptr, ptr %8, align 8, !tbaa !42
  %36 = getelementptr inbounds ptr, ptr %35, i64 3
  store ptr %34, ptr %36, align 8, !tbaa !22
  ret void
}