; Function Attrs: nounwind uwtable
define void @Amap_ManCreateXorChoices(ptr noundef captures(none) %0, ptr noundef %1, ptr noundef %2, ptr noundef writeonly captures(none) initializes((0, 32)) %3) local_unnamed_addr #0 {
  %5 = tail call ptr @Amap_ManSetupObj(ptr noundef %0)
  %6 = load i64, ptr %5, align 8
  %7 = and i64 %6, -8
  %8 = or disjoint i64 %7, 5
  store i64 %8, ptr %5, align 8
  %9 = ptrtoint ptr %1 to i64
  %10 = and i64 %9, -2
  %11 = inttoptr i64 %10 to ptr
  %12 = load i64, ptr %11, align 8
  %13 = trunc i64 %12 to i32
  %14 = trunc i64 %9 to i32
  %15 = and i32 %14, 1
  %16 = lshr i32 %13, 2
  %17 = and i32 %16, 1073741822
  %18 = or disjoint i32 %17, %15
  %19 = getelementptr inbounds nuw i8, ptr %5, i64 24
  store i32 %18, ptr %19, align 8, !tbaa !20
  %20 = getelementptr inbounds nuw i8, ptr %11, i64 16
  %21 = load i32, ptr %20, align 8, !tbaa !29
  %22 = add nsw i32 %21, 1
  store i32 %22, ptr %20, align 8, !tbaa !29
  %23 = ptrtoint ptr %2 to i64
  %24 = and i64 %23, -2
  %25 = inttoptr i64 %24 to ptr
  %26 = load i64, ptr %25, align 8
  %27 = trunc i64 %26 to i32
  %28 = trunc i64 %23 to i32
  %29 = and i32 %28, 1
  %30 = lshr i32 %27, 2
  %31 = and i32 %30, 1073741822
  %32 = or disjoint i32 %31, %29
  %33 = getelementptr inbounds nuw i8, ptr %5, i64 28
  store i32 %32, ptr %33, align 4, !tbaa !20
  %34 = getelementptr inbounds nuw i8, ptr %25, i64 16
  %35 = load i32, ptr %34, align 8, !tbaa !29
  %36 = add nsw i32 %35, 1
  store i32 %36, ptr %34, align 8, !tbaa !29
  %37 = load i64, ptr %11, align 8
  %38 = load i64, ptr %25, align 8
  %39 = xor i64 %38, %37
  %40 = lshr i64 %39, 61
  %41 = xor i64 %40, %9
  %42 = xor i64 %41, %23
  %43 = load i64, ptr %5, align 8
  %44 = shl i64 %42, 61
  %45 = and i64 %44, 2305843009213693952
  %46 = and i64 %43, -2305843009213693953
  %47 = or disjoint i64 %45, %46
  store i64 %47, ptr %5, align 8
  %48 = getelementptr inbounds nuw i8, ptr %11, i64 8
  %49 = load i32, ptr %48, align 8, !tbaa !33
  %50 = getelementptr inbounds nuw i8, ptr %25, i64 8
  %51 = load i32, ptr %50, align 8, !tbaa !33
  %52 = tail call noundef i32 @llvm.smax.i32(i32 %49, i32 %51)
  %53 = add nsw i32 %52, 2
  %54 = getelementptr inbounds nuw i8, ptr %5, i64 8
  store i32 %53, ptr %54, align 8, !tbaa !33
  %55 = getelementptr inbounds nuw i8, ptr %0, i64 124
  %56 = load i32, ptr %55, align 4, !tbaa !34
  %57 = icmp slt i32 %56, %53
  br i1 %57, label %58, label %Amap_ManCreateXor.exit

58:                                               ; preds = %4
  store i32 %53, ptr %55, align 4, !tbaa !34
  br label %Amap_ManCreateXor.exit

Amap_ManCreateXor.exit:                           ; preds = %4, %58
  %59 = getelementptr inbounds nuw i8, ptr %0, i64 116
  %60 = load i32, ptr %59, align 4, !tbaa !20
  %61 = add nsw i32 %60, 1
  store i32 %61, ptr %59, align 4, !tbaa !20
  store ptr %5, ptr %3, align 8, !tbaa !38
  %62 = xor i64 %9, 1
  %63 = tail call ptr @Amap_ManSetupObj(ptr noundef nonnull %0)
  %64 = load i64, ptr %63, align 8
  %65 = and i64 %64, -8
  %66 = or disjoint i64 %65, 5
  store i64 %66, ptr %63, align 8
  %67 = load i64, ptr %11, align 8
  %68 = trunc i64 %67 to i32
  %69 = trunc i64 %62 to i32
  %70 = and i32 %69, 1
  %71 = lshr i32 %68, 2
  %72 = and i32 %71, 1073741822
  %73 = or disjoint i32 %72, %70
  %74 = getelementptr inbounds nuw i8, ptr %63, i64 24
  store i32 %73, ptr %74, align 8, !tbaa !20
  %75 = load i32, ptr %20, align 8, !tbaa !29
  %76 = add nsw i32 %75, 1
  store i32 %76, ptr %20, align 8, !tbaa !29
  %77 = load i64, ptr %25, align 8
  %78 = trunc i64 %77 to i32
  %79 = lshr i32 %78, 2
  %80 = and i32 %79, 1073741822
  %81 = or disjoint i32 %80, %29
  %82 = getelementptr inbounds nuw i8, ptr %63, i64 28
  store i32 %81, ptr %82, align 4, !tbaa !20
  %83 = load i32, ptr %34, align 8, !tbaa !29
  %84 = add nsw i32 %83, 1
  store i32 %84, ptr %34, align 8, !tbaa !29
  %85 = load i64, ptr %11, align 8
  %86 = load i64, ptr %25, align 8
  %87 = xor i64 %86, %85
  %88 = lshr i64 %87, 61
  %89 = xor i64 %88, %23
  %90 = xor i64 %89, %62
  %91 = load i64, ptr %63, align 8
  %92 = shl i64 %90, 61
  %93 = and i64 %92, 2305843009213693952
  %94 = and i64 %91, -2305843009213693953
  %95 = or disjoint i64 %93, %94
  store i64 %95, ptr %63, align 8
  %96 = load i32, ptr %48, align 8, !tbaa !33
  %97 = load i32, ptr %50, align 8, !tbaa !33
  %98 = tail call noundef i32 @llvm.smax.i32(i32 %96, i32 %97)
  %99 = add nsw i32 %98, 2
  %100 = getelementptr inbounds nuw i8, ptr %63, i64 8
  store i32 %99, ptr %100, align 8, !tbaa !33
  %101 = load i32, ptr %55, align 4, !tbaa !34
  %102 = icmp slt i32 %101, %99
  br i1 %102, label %103, label %Amap_ManCreateXor.exit16

103:                                              ; preds = %Amap_ManCreateXor.exit
  store i32 %99, ptr %55, align 4, !tbaa !34
  br label %Amap_ManCreateXor.exit16

Amap_ManCreateXor.exit16:                         ; preds = %Amap_ManCreateXor.exit, %103
  %104 = load i32, ptr %59, align 4, !tbaa !20
  %105 = add nsw i32 %104, 1
  store i32 %105, ptr %59, align 4, !tbaa !20
  %106 = getelementptr inbounds nuw i8, ptr %3, i64 8
  store ptr %63, ptr %106, align 8, !tbaa !38
  %107 = xor i64 %23, 1
  %108 = tail call ptr @Amap_ManSetupObj(ptr noundef nonnull %0)
  %109 = load i64, ptr %108, align 8
  %110 = and i64 %109, -8
  %111 = or disjoint i64 %110, 5
  store i64 %111, ptr %108, align 8
  %112 = load i64, ptr %11, align 8
  %113 = trunc i64 %112 to i32
  %114 = lshr i32 %113, 2
  %115 = and i32 %114, 1073741822
  %116 = or disjoint i32 %115, %15
  %117 = getelementptr inbounds nuw i8, ptr %108, i64 24
  store i32 %116, ptr %117, align 8, !tbaa !20
  %118 = load i32, ptr %20, align 8, !tbaa !29
  %119 = add nsw i32 %118, 1
  store i32 %119, ptr %20, align 8, !tbaa !29
  %120 = load i64, ptr %25, align 8
  %121 = trunc i64 %120 to i32
  %122 = trunc i64 %107 to i32
  %123 = and i32 %122, 1
  %124 = lshr i32 %121, 2
  %125 = and i32 %124, 1073741822
  %126 = or disjoint i32 %125, %123
  %127 = getelementptr inbounds nuw i8, ptr %108, i64 28
  store i32 %126, ptr %127, align 4, !tbaa !20
  %128 = load i32, ptr %34, align 8, !tbaa !29
  %129 = add nsw i32 %128, 1
  store i32 %129, ptr %34, align 8, !tbaa !29
  %130 = load i64, ptr %11, align 8
  %131 = load i64, ptr %25, align 8
  %132 = xor i64 %131, %130
  %133 = lshr i64 %132, 61
  %134 = xor i64 %133, %9
  %135 = xor i64 %134, %107
  %136 = load i64, ptr %108, align 8
  %137 = shl i64 %135, 61
  %138 = and i64 %137, 2305843009213693952
  %139 = and i64 %136, -2305843009213693953
  %140 = or disjoint i64 %138, %139
  store i64 %140, ptr %108, align 8
  %141 = load i32, ptr %48, align 8, !tbaa !33
  %142 = load i32, ptr %50, align 8, !tbaa !33
  %143 = tail call noundef i32 @llvm.smax.i32(i32 %141, i32 %142)
  %144 = add nsw i32 %143, 2
  %145 = getelementptr inbounds nuw i8, ptr %108, i64 8
  store i32 %144, ptr %145, align 8, !tbaa !33
  %146 = load i32, ptr %55, align 4, !tbaa !34
  %147 = icmp slt i32 %146, %144
  br i1 %147, label %148, label %Amap_ManCreateXor.exit17

148:                                              ; preds = %Amap_ManCreateXor.exit16
  store i32 %144, ptr %55, align 4, !tbaa !34
  br label %Amap_ManCreateXor.exit17

Amap_ManCreateXor.exit17:                         ; preds = %Amap_ManCreateXor.exit16, %148
  %149 = load i32, ptr %59, align 4, !tbaa !20
  %150 = add nsw i32 %149, 1
  store i32 %150, ptr %59, align 4, !tbaa !20
  %151 = getelementptr inbounds nuw i8, ptr %3, i64 16
  store ptr %108, ptr %151, align 8, !tbaa !38
  %152 = tail call ptr @Amap_ManSetupObj(ptr noundef nonnull %0)
  %153 = load i64, ptr %152, align 8
  %154 = and i64 %153, -8
  %155 = or disjoint i64 %154, 5
  store i64 %155, ptr %152, align 8
  %156 = load i64, ptr %11, align 8
  %157 = trunc i64 %156 to i32
  %158 = lshr i32 %157, 2
  %159 = and i32 %158, 1073741822
  %160 = or disjoint i32 %159, %70
  %161 = getelementptr inbounds nuw i8, ptr %152, i64 24
  store i32 %160, ptr %161, align 8, !tbaa !20
  %162 = load i32, ptr %20, align 8, !tbaa !29
  %163 = add nsw i32 %162, 1
  store i32 %163, ptr %20, align 8, !tbaa !29
  %164 = load i64, ptr %25, align 8
  %165 = trunc i64 %164 to i32
  %166 = lshr i32 %165, 2
  %167 = and i32 %166, 1073741822
  %168 = or disjoint i32 %167, %123
  %169 = getelementptr inbounds nuw i8, ptr %152, i64 28
  store i32 %168, ptr %169, align 4, !tbaa !20
  %170 = load i32, ptr %34, align 8, !tbaa !29
  %171 = add nsw i32 %170, 1
  store i32 %171, ptr %34, align 8, !tbaa !29
  %172 = load i64, ptr %11, align 8
  %173 = load i64, ptr %25, align 8
  %174 = xor i64 %173, %172
  %175 = lshr i64 %174, 61
  %176 = xor i64 %175, %9
  %177 = xor i64 %176, %23
  %178 = load i64, ptr %152, align 8
  %179 = shl i64 %177, 61
  %180 = and i64 %179, 2305843009213693952
  %181 = and i64 %178, -2305843009213693953
  %182 = or disjoint i64 %180, %181
  store i64 %182, ptr %152, align 8
  %183 = load i32, ptr %48, align 8, !tbaa !33
  %184 = load i32, ptr %50, align 8, !tbaa !33
  %185 = tail call noundef i32 @llvm.smax.i32(i32 %183, i32 %184)
  %186 = add nsw i32 %185, 2
  %187 = getelementptr inbounds nuw i8, ptr %152, i64 8
  store i32 %186, ptr %187, align 8, !tbaa !33
  %188 = load i32, ptr %55, align 4, !tbaa !34
  %189 = icmp slt i32 %188, %186
  br i1 %189, label %190, label %Amap_ManCreateXor.exit18

190:                                              ; preds = %Amap_ManCreateXor.exit17
  store i32 %186, ptr %55, align 4, !tbaa !34
  br label %Amap_ManCreateXor.exit18

Amap_ManCreateXor.exit18:                         ; preds = %Amap_ManCreateXor.exit17, %190
  %191 = load i32, ptr %59, align 4, !tbaa !20
  %192 = add nsw i32 %191, 1
  store i32 %192, ptr %59, align 4, !tbaa !20
  %193 = getelementptr inbounds nuw i8, ptr %3, i64 24
  store ptr %152, ptr %193, align 8, !tbaa !38
  ret void
}